; Function Attrs: mustprogress nofree norecurse nosync nounwind willreturn memory(none) uwtable
define internal double @b_func(ptr readnone captures(none) %0, double noundef %1) #10 {
  %3 = fcmp nsz ogt double %1, 0.000000e+00
  %4 = select nsz i1 %3, double %1, double 0.000000e+00
  %5 = fcmp nsz ogt double %4, 1.000000e+00
  %..i = select nsz i1 %5, double 1.000000e+00, double %4
  %6 = fmul nsz double %..i, 2.550000e+02
  %7 = tail call i64 @llvm.lrint.i64.f64(double %6)
  %8 = sitofp i64 %7 to double
  ret double %8
}